target datalayout = "e-m:e-p270:32:32-p271:32:32-p272:64:64-i64:64-i128:128-f80:128-n8:16:32:64-S128"
target triple = "x86_64-pc-linux-gnu"

%struct.stbi__write_context = type { ptr, ptr, [64 x i8], i32 }

@__const.stbiw__write_pixel.bg = private unnamed_addr constant [3 x i8] c"\FF\00\FF", align 1

; Function Attrs: nounwind uwtable
define void @stbiw__write_flush(ptr noundef %0) #0 {
  %2 = alloca ptr, align 8
  store ptr %0, ptr %2, align 8, !tbaa !7
  %3 = load ptr, ptr %2, align 8, !tbaa !7
  %4 = getelementptr inbounds nuw %struct.stbi__write_context, ptr %3, i32 0, i32 3
  %5 = load i32, ptr %4, align 8, !tbaa !21
  %6 = icmp ne i32 %5, 0
  br i1 %6, label %7, label %21

7:                                                ; preds = %1
  %8 = load ptr, ptr %2, align 8, !tbaa !7
  %9 = getelementptr inbounds nuw %struct.stbi__write_context, ptr %8, i32 0, i32 0
  %10 = load ptr, ptr %9, align 8, !tbaa !9
  %11 = load ptr, ptr %2, align 8, !tbaa !7
  %12 = getelementptr inbounds nuw %struct.stbi__write_context, ptr %11, i32 0, i32 1
  %13 = load ptr, ptr %12, align 8, !tbaa !11
  %14 = load ptr, ptr %2, align 8, !tbaa !7
  %15 = getelementptr inbounds nuw %struct.stbi__write_context, ptr %14, i32 0, i32 2
  %16 = load ptr, ptr %2, align 8, !tbaa !7
  %17 = getelementptr inbounds nuw %struct.stbi__write_context, ptr %16, i32 0, i32 3
  %18 = load i32, ptr %17, align 8, !tbaa !21
  call void %10(ptr noundef %13, ptr noundef %15, i32 noundef %18)
  %19 = load ptr, ptr %2, align 8, !tbaa !7
  %20 = getelementptr inbounds nuw %struct.stbi__write_context, ptr %19, i32 0, i32 3
  store i32 0, ptr %20, align 8, !tbaa !21
  br label %21

21:                                               ; preds = %7, %1
  ret void
}

; Function Attrs: nounwind uwtable
define void @stbiw__write3(ptr noundef %0, i8 noundef zeroext %1, i8 noundef zeroext %2, i8 noundef zeroext %3) #0 {
  %5 = alloca ptr, align 8
  %6 = alloca i8, align 1
  %7 = alloca i8, align 1
  %8 = alloca i8, align 1
  %9 = alloca i32, align 4
  store ptr %0, ptr %5, align 8, !tbaa !7
  store i8 %1, ptr %6, align 1, !tbaa !18
  store i8 %2, ptr %7, align 1, !tbaa !18
  store i8 %3, ptr %8, align 1, !tbaa !18
  call void @llvm.lifetime.start.p0(i64 4, ptr %9) #11
  %10 = load ptr, ptr %5, align 8, !tbaa !7
  %11 = getelementptr inbounds nuw %struct.stbi__write_context, ptr %10, i32 0, i32 3
  %12 = load i32, ptr %11, align 8, !tbaa !21
  %13 = sext i32 %12 to i64
  %14 = add i64 %13, 3
  %15 = icmp ugt i64 %14, 64
  br i1 %15, label %16, label %18

16:                                               ; preds = %4
  %17 = load ptr, ptr %5, align 8, !tbaa !7
  call void @stbiw__write_flush(ptr noundef %17)
  br label %18

18:                                               ; preds = %16, %4
  %19 = load ptr, ptr %5, align 8, !tbaa !7
  %20 = getelementptr inbounds nuw %struct.stbi__write_context, ptr %19, i32 0, i32 3
  %21 = load i32, ptr %20, align 8, !tbaa !21
  store i32 %21, ptr %9, align 4, !tbaa !3
  %22 = load i32, ptr %9, align 4, !tbaa !3
  %23 = add nsw i32 %22, 3
  %24 = load ptr, ptr %5, align 8, !tbaa !7
  %25 = getelementptr inbounds nuw %struct.stbi__write_context, ptr %24, i32 0, i32 3
  store i32 %23, ptr %25, align 8, !tbaa !21
  %26 = load i8, ptr %6, align 1, !tbaa !18
  %27 = load ptr, ptr %5, align 8, !tbaa !7
  %28 = getelementptr inbounds nuw %struct.stbi__write_context, ptr %27, i32 0, i32 2
  %29 = load i32, ptr %9, align 4, !tbaa !3
  %30 = add nsw i32 %29, 0
  %31 = sext i32 %30 to i64
  %32 = getelementptr inbounds [64 x i8], ptr %28, i64 0, i64 %31
  store i8 %26, ptr %32, align 1, !tbaa !18
  %33 = load i8, ptr %7, align 1, !tbaa !18
  %34 = load ptr, ptr %5, align 8, !tbaa !7
  %35 = getelementptr inbounds nuw %struct.stbi__write_context, ptr %34, i32 0, i32 2
  %36 = load i32, ptr %9, align 4, !tbaa !3
  %37 = add nsw i32 %36, 1
  %38 = sext i32 %37 to i64
  %39 = getelementptr inbounds [64 x i8], ptr %35, i64 0, i64 %38
  store i8 %33, ptr %39, align 1, !tbaa !18
  %40 = load i8, ptr %8, align 1, !tbaa !18
  %41 = load ptr, ptr %5, align 8, !tbaa !7
  %42 = getelementptr inbounds nuw %struct.stbi__write_context, ptr %41, i32 0, i32 2
  %43 = load i32, ptr %9, align 4, !tbaa !3
  %44 = add nsw i32 %43, 2
  %45 = sext i32 %44 to i64
  %46 = getelementptr inbounds [64 x i8], ptr %42, i64 0, i64 %45
  store i8 %40, ptr %46, align 1, !tbaa !18
  call void @llvm.lifetime.end.p0(i64 4, ptr %9) #11
  ret void
}

; Function Attrs: nounwind uwtable
define void @stbiw__write1(ptr noundef %0, i8 noundef zeroext %1) #0 {
  %3 = alloca ptr, align 8
  %4 = alloca i8, align 1
  store ptr %0, ptr %3, align 8, !tbaa !7
  store i8 %1, ptr %4, align 1, !tbaa !18
  %5 = load ptr, ptr %3, align 8, !tbaa !7
  %6 = getelementptr inbounds nuw %struct.stbi__write_context, ptr %5, i32 0, i32 3
  %7 = load i32, ptr %6, align 8, !tbaa !21
  %8 = sext i32 %7 to i64
  %9 = add i64 %8, 1
  %10 = icmp ugt i64 %9, 64
  br i1 %10, label %11, label %13

11:                                               ; preds = %2
  %12 = load ptr, ptr %3, align 8, !tbaa !7
  call void @stbiw__write_flush(ptr noundef %12)
  br label %13

13:                                               ; preds = %11, %2
  %14 = load i8, ptr %4, align 1, !tbaa !18
  %15 = load ptr, ptr %3, align 8, !tbaa !7
  %16 = getelementptr inbounds nuw %struct.stbi__write_context, ptr %15, i32 0, i32 2
  %17 = load ptr, ptr %3, align 8, !tbaa !7
  %18 = getelementptr inbounds nuw %struct.stbi__write_context, ptr %17, i32 0, i32 3
  %19 = load i32, ptr %18, align 8, !tbaa !21
  %20 = add nsw i32 %19, 1
  store i32 %20, ptr %18, align 8, !tbaa !21
  %21 = sext i32 %19 to i64
  %22 = getelementptr inbounds [64 x i8], ptr %16, i64 0, i64 %21
  store i8 %14, ptr %22, align 1, !tbaa !18
  ret void
}

; Function Attrs: nounwind uwtable
define void @stbiw__write_pixel(ptr noundef %0, i32 noundef %1, i32 noundef %2, i32 noundef %3, i32 noundef %4, ptr noundef %5) #0 {
  %7 = alloca ptr, align 8
  %8 = alloca i32, align 4
  %9 = alloca i32, align 4
  %10 = alloca i32, align 4
  %11 = alloca i32, align 4
  %12 = alloca ptr, align 8
  %13 = alloca [3 x i8], align 1
  %14 = alloca [3 x i8], align 1
  %15 = alloca i32, align 4
  store ptr %0, ptr %7, align 8, !tbaa !7
  store i32 %1, ptr %8, align 4, !tbaa !3
  store i32 %2, ptr %9, align 4, !tbaa !3
  store i32 %3, ptr %10, align 4, !tbaa !3
  store i32 %4, ptr %11, align 4, !tbaa !3
  store ptr %5, ptr %12, align 8, !tbaa !12
  call void @llvm.lifetime.start.p0(i64 3, ptr %13) #11
  call void @llvm.memcpy.p0.p0.i64(ptr align 1 %13, ptr align 1 @__const.stbiw__write_pixel.bg, i64 3, i1 false)
  call void @llvm.lifetime.start.p0(i64 3, ptr %14) #11
  call void @llvm.lifetime.start.p0(i64 4, ptr %15) #11
  %16 = load i32, ptr %10, align 4, !tbaa !3
  %17 = icmp slt i32 %16, 0
  br i1 %17, label %18, label %26

18:                                               ; preds = %6
  %19 = load ptr, ptr %7, align 8, !tbaa !7
  %20 = load ptr, ptr %12, align 8, !tbaa !12
  %21 = load i32, ptr %9, align 4, !tbaa !3
  %22 = sub nsw i32 %21, 1
  %23 = sext i32 %22 to i64
  %24 = getelementptr inbounds i8, ptr %20, i64 %23
  %25 = load i8, ptr %24, align 1, !tbaa !18
  call void @stbiw__write1(ptr noundef %19, i8 noundef zeroext %25)
  br label %26

26:                                               ; preds = %18, %6
  %27 = load i32, ptr %9, align 4, !tbaa !3
  switch i32 %27, label %119 [
    i32 2, label %28
    i32 1, label %28
    i32 4, label %48
    i32 3, label %102
  ]

28:                                               ; preds = %26, %26
  %29 = load i32, ptr %11, align 4, !tbaa !3
  %30 = icmp ne i32 %29, 0
  br i1 %30, label %31, label %42

31:                                               ; preds = %28
  %32 = load ptr, ptr %7, align 8, !tbaa !7
  %33 = load ptr, ptr %12, align 8, !tbaa !12
  %34 = getelementptr inbounds i8, ptr %33, i64 0
  %35 = load i8, ptr %34, align 1, !tbaa !18
  %36 = load ptr, ptr %12, align 8, !tbaa !12
  %37 = getelementptr inbounds i8, ptr %36, i64 0
  %38 = load i8, ptr %37, align 1, !tbaa !18
  %39 = load ptr, ptr %12, align 8, !tbaa !12
  %40 = getelementptr inbounds i8, ptr %39, i64 0
  %41 = load i8, ptr %40, align 1, !tbaa !18
  call void @stbiw__write3(ptr noundef %32, i8 noundef zeroext %35, i8 noundef zeroext %38, i8 noundef zeroext %41)
  br label %47

42:                                               ; preds = %28
  %43 = load ptr, ptr %7, align 8, !tbaa !7
  %44 = load ptr, ptr %12, align 8, !tbaa !12
  %45 = getelementptr inbounds i8, ptr %44, i64 0
  %46 = load i8, ptr %45, align 1, !tbaa !18
  call void @stbiw__write1(ptr noundef %43, i8 noundef zeroext %46)
  br label %47

47:                                               ; preds = %42, %31
  br label %119

48:                                               ; preds = %26
  %49 = load i32, ptr %10, align 4, !tbaa !3
  %50 = icmp ne i32 %49, 0
  br i1 %50, label %101, label %51

51:                                               ; preds = %48
  store i32 0, ptr %15, align 4, !tbaa !3
  br label %52

52:                                               ; preds = %84, %51
  %53 = load i32, ptr %15, align 4, !tbaa !3
  %54 = icmp slt i32 %53, 3
  br i1 %54, label %55, label %87

55:                                               ; preds = %52
  %56 = load i32, ptr %15, align 4, !tbaa !3
  %57 = sext i32 %56 to i64
  %58 = getelementptr inbounds [3 x i8], ptr %13, i64 0, i64 %57
  %59 = load i8, ptr %58, align 1, !tbaa !18
  %60 = zext i8 %59 to i32
  %61 = load ptr, ptr %12, align 8, !tbaa !12
  %62 = load i32, ptr %15, align 4, !tbaa !3
  %63 = sext i32 %62 to i64
  %64 = getelementptr inbounds i8, ptr %61, i64 %63
  %65 = load i8, ptr %64, align 1, !tbaa !18
  %66 = zext i8 %65 to i32
  %67 = load i32, ptr %15, align 4, !tbaa !3
  %68 = sext i32 %67 to i64
  %69 = getelementptr inbounds [3 x i8], ptr %13, i64 0, i64 %68
  %70 = load i8, ptr %69, align 1, !tbaa !18
  %71 = zext i8 %70 to i32
  %72 = sub nsw i32 %66, %71
  %73 = load ptr, ptr %12, align 8, !tbaa !12
  %74 = getelementptr inbounds i8, ptr %73, i64 3
  %75 = load i8, ptr %74, align 1, !tbaa !18
  %76 = zext i8 %75 to i32
  %77 = mul nsw i32 %72, %76
  %78 = sdiv i32 %77, 255
  %79 = add nsw i32 %60, %78
  %80 = trunc i32 %79 to i8
  %81 = load i32, ptr %15, align 4, !tbaa !3
  %82 = sext i32 %81 to i64
  %83 = getelementptr inbounds [3 x i8], ptr %14, i64 0, i64 %82
  store i8 %80, ptr %83, align 1, !tbaa !18
  br label %84

84:                                               ; preds = %55
  %85 = load i32, ptr %15, align 4, !tbaa !3
  %86 = add nsw i32 %85, 1
  store i32 %86, ptr %15, align 4, !tbaa !3
  br label %52, !llvm.loop !22

87:                                               ; preds = %52
  %88 = load ptr, ptr %7, align 8, !tbaa !7
  %89 = load i32, ptr %8, align 4, !tbaa !3
  %90 = sub nsw i32 1, %89
  %91 = sext i32 %90 to i64
  %92 = getelementptr inbounds [3 x i8], ptr %14, i64 0, i64 %91
  %93 = load i8, ptr %92, align 1, !tbaa !18
  %94 = getelementptr inbounds [3 x i8], ptr %14, i64 0, i64 1
  %95 = load i8, ptr %94, align 1, !tbaa !18
  %96 = load i32, ptr %8, align 4, !tbaa !3
  %97 = add nsw i32 1, %96
  %98 = sext i32 %97 to i64
  %99 = getelementptr inbounds [3 x i8], ptr %14, i64 0, i64 %98
  %100 = load i8, ptr %99, align 1, !tbaa !18
  call void @stbiw__write3(ptr noundef %88, i8 noundef zeroext %93, i8 noundef zeroext %95, i8 noundef zeroext %100)
  br label %119

101:                                              ; preds = %48
  br label %102

102:                                              ; preds = %26, %101
  %103 = load ptr, ptr %7, align 8, !tbaa !7
  %104 = load ptr, ptr %12, align 8, !tbaa !12
  %105 = load i32, ptr %8, align 4, !tbaa !3
  %106 = sub nsw i32 1, %105
  %107 = sext i32 %106 to i64
  %108 = getelementptr inbounds i8, ptr %104, i64 %107
  %109 = load i8, ptr %108, align 1, !tbaa !18
  %110 = load ptr, ptr %12, align 8, !tbaa !12
  %111 = getelementptr inbounds i8, ptr %110, i64 1
  %112 = load i8, ptr %111, align 1, !tbaa !18
  %113 = load ptr, ptr %12, align 8, !tbaa !12
  %114 = load i32, ptr %8, align 4, !tbaa !3
  %115 = add nsw i32 1, %114
  %116 = sext i32 %115 to i64
  %117 = getelementptr inbounds i8, ptr %113, i64 %116
  %118 = load i8, ptr %117, align 1, !tbaa !18
  call void @stbiw__write3(ptr noundef %103, i8 noundef zeroext %109, i8 noundef zeroext %112, i8 noundef zeroext %118)
  br label %119

119:                                              ; preds = %26, %102, %87, %47
  %120 = load i32, ptr %10, align 4, !tbaa !3
  %121 = icmp sgt i32 %120, 0
  br i1 %121, label %122, label %130

122:                                              ; preds = %119
  %123 = load ptr, ptr %7, align 8, !tbaa !7
  %124 = load ptr, ptr %12, align 8, !tbaa !12
  %125 = load i32, ptr %9, align 4, !tbaa !3
  %126 = sub nsw i32 %125, 1
  %127 = sext i32 %126 to i64
  %128 = getelementptr inbounds i8, ptr %124, i64 %127
  %129 = load i8, ptr %128, align 1, !tbaa !18
  call void @stbiw__write1(ptr noundef %123, i8 noundef zeroext %129)
  br label %130

130:                                              ; preds = %122, %119
  call void @llvm.lifetime.end.p0(i64 4, ptr %15) #11
  call void @llvm.lifetime.end.p0(i64 3, ptr %14) #11
  call void @llvm.lifetime.end.p0(i64 3, ptr %13) #11
  ret void
}