; Function Attrs: nounwind uwtable
define void @stbiw__write_pixel(ptr noundef %0, i32 noundef %1, i32 noundef %2, i32 noundef %3, i32 noundef %4, ptr noundef readonly captures(none) %5) local_unnamed_addr #5 {
  %7 = alloca [3 x i8], align 1
  call void @llvm.lifetime.start.p0(i64 3, ptr nonnull %7) #26
  %8 = icmp slt i32 %3, 0
  br i1 %8, label %9, label %29

9:                                                ; preds = %6
  %10 = sext i32 %2 to i64
  %11 = getelementptr i8, ptr %5, i64 %10
  %12 = getelementptr i8, ptr %11, i64 -1
  %13 = load i8, ptr %12, align 1, !tbaa !11
  %14 = getelementptr inbounds nuw i8, ptr %0, i64 80
  %15 = load i32, ptr %14, align 8, !tbaa !14
  %16 = sext i32 %15 to i64
  %17 = add nsw i64 %16, 1
  %18 = icmp ult i64 %17, 65
  br i1 %18, label %stbiw__write1.exit, label %19

19:                                               ; preds = %9
  %20 = load ptr, ptr %0, align 8, !tbaa !7
  %21 = getelementptr inbounds nuw i8, ptr %0, i64 8
  %22 = load ptr, ptr %21, align 8, !tbaa !10
  %23 = getelementptr inbounds nuw i8, ptr %0, i64 16
  tail call void %20(ptr noundef %22, ptr noundef nonnull %23, i32 noundef %15) #26
  br label %stbiw__write1.exit

stbiw__write1.exit:                               ; preds = %9, %19
  %24 = phi i32 [ 0, %19 ], [ %15, %9 ]
  %25 = getelementptr inbounds nuw i8, ptr %0, i64 16
  %26 = add nsw i32 %24, 1
  store i32 %26, ptr %14, align 8, !tbaa !14
  %27 = sext i32 %24 to i64
  %28 = getelementptr inbounds [64 x i8], ptr %25, i64 0, i64 %27
  store i8 %13, ptr %28, align 1, !tbaa !11
  br label %29

29:                                               ; preds = %stbiw__write1.exit, %6
  switch i32 %2, label %142 [
    i32 2, label %30
    i32 1, label %30
    i32 4, label %62
    i32 3, label %109
  ]

30:                                               ; preds = %29, %29
  %.not33 = icmp eq i32 %4, 0
  %31 = load i8, ptr %5, align 1, !tbaa !11
  %32 = getelementptr inbounds nuw i8, ptr %0, i64 80
  %33 = load i32, ptr %32, align 8, !tbaa !14
  %34 = sext i32 %33 to i64
  br i1 %.not33, label %52, label %35

35:                                               ; preds = %30
  %36 = add nsw i64 %34, 3
  %37 = icmp ult i64 %36, 65
  br i1 %37, label %stbiw__write3.exit, label %38

38:                                               ; preds = %35
  %39 = load ptr, ptr %0, align 8, !tbaa !7
  %40 = getelementptr inbounds nuw i8, ptr %0, i64 8
  %41 = load ptr, ptr %40, align 8, !tbaa !10
  %42 = getelementptr inbounds nuw i8, ptr %0, i64 16
  tail call void %39(ptr noundef %41, ptr noundef nonnull %42, i32 noundef %33) #26
  br label %stbiw__write3.exit

stbiw__write3.exit:                               ; preds = %35, %38
  %43 = phi i32 [ 0, %38 ], [ %33, %35 ]
  %44 = add nsw i32 %43, 3
  store i32 %44, ptr %32, align 8, !tbaa !14
  %45 = getelementptr inbounds nuw i8, ptr %0, i64 16
  %46 = sext i32 %43 to i64
  %47 = getelementptr inbounds [64 x i8], ptr %45, i64 0, i64 %46
  store i8 %31, ptr %47, align 1, !tbaa !11
  %48 = add nsw i32 %43, 1
  %49 = sext i32 %48 to i64
  %50 = getelementptr inbounds [64 x i8], ptr %45, i64 0, i64 %49
  store i8 %31, ptr %50, align 1, !tbaa !11
  %51 = add nsw i32 %43, 2
  br label %.sink.split

52:                                               ; preds = %30
  %53 = add nsw i64 %34, 1
  %54 = icmp ult i64 %53, 65
  br i1 %54, label %stbiw__write1.exit34, label %55

55:                                               ; preds = %52
  %56 = load ptr, ptr %0, align 8, !tbaa !7
  %57 = getelementptr inbounds nuw i8, ptr %0, i64 8
  %58 = load ptr, ptr %57, align 8, !tbaa !10
  %59 = getelementptr inbounds nuw i8, ptr %0, i64 16
  tail call void %56(ptr noundef %58, ptr noundef nonnull %59, i32 noundef %33) #26
  br label %stbiw__write1.exit34

stbiw__write1.exit34:                             ; preds = %52, %55
  %60 = phi i32 [ 0, %55 ], [ %33, %52 ]
  %61 = add nsw i32 %60, 1
  store i32 %61, ptr %32, align 8, !tbaa !14
  br label %.sink.split

62:                                               ; preds = %29
  %.not = icmp eq i32 %3, 0
  br i1 %.not, label %.preheader, label %109

.preheader:                                       ; preds = %62
  %63 = getelementptr inbounds nuw i8, ptr %5, i64 3
  %64 = load i8, ptr %63, align 1, !tbaa !11
  %65 = zext i8 %64 to i32
  br label %66

66:                                               ; preds = %.preheader, %66
  %indvars.iv = phi i64 [ 0, %.preheader ], [ %indvars.iv.next, %66 ]
  %67 = getelementptr inbounds nuw [3 x i8], ptr @__const.stbiw__write_pixel.bg, i64 0, i64 %indvars.iv
  %68 = load i8, ptr %67, align 1, !tbaa !11
  %69 = zext i8 %68 to i32
  %70 = getelementptr inbounds nuw i8, ptr %5, i64 %indvars.iv
  %71 = load i8, ptr %70, align 1, !tbaa !11
  %72 = zext i8 %71 to i32
  %73 = sub nsw i32 %72, %69
  %74 = mul nsw i32 %73, %65
  %75 = sdiv i32 %74, 255
  %76 = trunc i32 %75 to i8
  %77 = add i8 %68, %76
  %78 = getelementptr inbounds nuw [3 x i8], ptr %7, i64 0, i64 %indvars.iv
  store i8 %77, ptr %78, align 1, !tbaa !11
  %indvars.iv.next = add nuw nsw i64 %indvars.iv, 1
  %exitcond.not = icmp eq i64 %indvars.iv.next, 3
  br i1 %exitcond.not, label %79, label %66, !llvm.loop !15

79:                                               ; preds = %66
  %80 = sub nsw i32 1, %1
  %81 = sext i32 %80 to i64
  %82 = getelementptr inbounds [3 x i8], ptr %7, i64 0, i64 %81
  %83 = load i8, ptr %82, align 1, !tbaa !11
  %84 = getelementptr inbounds nuw i8, ptr %7, i64 1
  %85 = load i8, ptr %84, align 1, !tbaa !11
  %86 = add nsw i32 %1, 1
  %87 = sext i32 %86 to i64
  %88 = getelementptr inbounds [3 x i8], ptr %7, i64 0, i64 %87
  %89 = load i8, ptr %88, align 1, !tbaa !11
  %90 = getelementptr inbounds nuw i8, ptr %0, i64 80
  %91 = load i32, ptr %90, align 8, !tbaa !14
  %92 = sext i32 %91 to i64
  %93 = add nsw i64 %92, 3
  %94 = icmp ult i64 %93, 65
  br i1 %94, label %stbiw__write3.exit35, label %95

95:                                               ; preds = %79
  %96 = load ptr, ptr %0, align 8, !tbaa !7
  %97 = getelementptr inbounds nuw i8, ptr %0, i64 8
  %98 = load ptr, ptr %97, align 8, !tbaa !10
  %99 = getelementptr inbounds nuw i8, ptr %0, i64 16
  tail call void %96(ptr noundef %98, ptr noundef nonnull %99, i32 noundef %91) #26
  br label %stbiw__write3.exit35

stbiw__write3.exit35:                             ; preds = %79, %95
  %100 = phi i32 [ 0, %95 ], [ %91, %79 ]
  %101 = add nsw i32 %100, 3
  store i32 %101, ptr %90, align 8, !tbaa !14
  %102 = getelementptr inbounds nuw i8, ptr %0, i64 16
  %103 = sext i32 %100 to i64
  %104 = getelementptr inbounds [64 x i8], ptr %102, i64 0, i64 %103
  store i8 %83, ptr %104, align 1, !tbaa !11
  %105 = add nsw i32 %100, 1
  %106 = sext i32 %105 to i64
  %107 = getelementptr inbounds [64 x i8], ptr %102, i64 0, i64 %106
  store i8 %85, ptr %107, align 1, !tbaa !11
  %108 = add nsw i32 %100, 2
  br label %.sink.split

109:                                              ; preds = %62, %29
  %110 = sub nsw i32 1, %1
  %111 = sext i32 %110 to i64
  %112 = getelementptr inbounds i8, ptr %5, i64 %111
  %113 = load i8, ptr %112, align 1, !tbaa !11
  %114 = getelementptr inbounds nuw i8, ptr %5, i64 1
  %115 = load i8, ptr %114, align 1, !tbaa !11
  %116 = sext i32 %1 to i64
  %117 = getelementptr i8, ptr %5, i64 %116
  %118 = getelementptr i8, ptr %117, i64 1
  %119 = load i8, ptr %118, align 1, !tbaa !11
  %120 = getelementptr inbounds nuw i8, ptr %0, i64 80
  %121 = load i32, ptr %120, align 8, !tbaa !14
  %122 = sext i32 %121 to i64
  %123 = add nsw i64 %122, 3
  %124 = icmp ult i64 %123, 65
  br i1 %124, label %stbiw__write3.exit36, label %125

125:                                              ; preds = %109
  %126 = load ptr, ptr %0, align 8, !tbaa !7
  %127 = getelementptr inbounds nuw i8, ptr %0, i64 8
  %128 = load ptr, ptr %127, align 8, !tbaa !10
  %129 = getelementptr inbounds nuw i8, ptr %0, i64 16
  tail call void %126(ptr noundef %128, ptr noundef nonnull %129, i32 noundef %121) #26
  br label %stbiw__write3.exit36

stbiw__write3.exit36:                             ; preds = %109, %125
  %130 = phi i32 [ 0, %125 ], [ %121, %109 ]
  %131 = add nsw i32 %130, 3
  store i32 %131, ptr %120, align 8, !tbaa !14
  %132 = getelementptr inbounds nuw i8, ptr %0, i64 16
  %133 = sext i32 %130 to i64
  %134 = getelementptr inbounds [64 x i8], ptr %132, i64 0, i64 %133
  store i8 %113, ptr %134, align 1, !tbaa !11
  %135 = add nsw i32 %130, 1
  %136 = sext i32 %135 to i64
  %137 = getelementptr inbounds [64 x i8], ptr %132, i64 0, i64 %136
  store i8 %115, ptr %137, align 1, !tbaa !11
  %138 = add nsw i32 %130, 2
  br label %.sink.split

.sink.split:                                      ; preds = %stbiw__write3.exit35, %stbiw__write3.exit36, %stbiw__write1.exit34, %stbiw__write3.exit
  %.sink43 = phi i32 [ %51, %stbiw__write3.exit ], [ %60, %stbiw__write1.exit34 ], [ %138, %stbiw__write3.exit36 ], [ %108, %stbiw__write3.exit35 ]
  %.sink = phi i8 [ %31, %stbiw__write3.exit ], [ %31, %stbiw__write1.exit34 ], [ %119, %stbiw__write3.exit36 ], [ %89, %stbiw__write3.exit35 ]
  %139 = getelementptr inbounds nuw i8, ptr %0, i64 16
  %140 = sext i32 %.sink43 to i64
  %141 = getelementptr inbounds [64 x i8], ptr %139, i64 0, i64 %140
  store i8 %.sink, ptr %141, align 1, !tbaa !11
  br label %142

142:                                              ; preds = %.sink.split, %29
  %143 = icmp sgt i32 %3, 0
  br i1 %143, label %144, label %164

144:                                              ; preds = %142
  %145 = sext i32 %2 to i64
  %146 = getelementptr i8, ptr %5, i64 %145
  %147 = getelementptr i8, ptr %146, i64 -1
  %148 = load i8, ptr %147, align 1, !tbaa !11
  %149 = getelementptr inbounds nuw i8, ptr %0, i64 80
  %150 = load i32, ptr %149, align 8, !tbaa !14
  %151 = sext i32 %150 to i64
  %152 = add nsw i64 %151, 1
  %153 = icmp ult i64 %152, 65
  br i1 %153, label %stbiw__write1.exit37, label %154

154:                                              ; preds = %144
  %155 = load ptr, ptr %0, align 8, !tbaa !7
  %156 = getelementptr inbounds nuw i8, ptr %0, i64 8
  %157 = load ptr, ptr %156, align 8, !tbaa !10
  %158 = getelementptr inbounds nuw i8, ptr %0, i64 16
  tail call void %155(ptr noundef %157, ptr noundef nonnull %158, i32 noundef %150) #26
  br label %stbiw__write1.exit37

stbiw__write1.exit37:                             ; preds = %144, %154
  %159 = phi i32 [ 0, %154 ], [ %150, %144 ]
  %160 = getelementptr inbounds nuw i8, ptr %0, i64 16
  %161 = add nsw i32 %159, 1
  store i32 %161, ptr %149, align 8, !tbaa !14
  %162 = sext i32 %159 to i64
  %163 = getelementptr inbounds [64 x i8], ptr %160, i64 0, i64 %162
  store i8 %148, ptr %163, align 1, !tbaa !11
  br label %164

164:                                              ; preds = %stbiw__write1.exit37, %142
  call void @llvm.lifetime.end.p0(i64 3, ptr nonnull %7) #26
  ret void
}